target datalayout = "e-m:e-p270:32:32-p271:32:32-p272:64:64-i64:64-i128:128-f80:128-n8:16:32:64-S128"
target triple = "x86_64-unknown-linux-gnu"

%"class.icu_75::UnicodeString" = type { %"class.icu_75::Replaceable", %"union.icu_75::UnicodeString::StackBufferOrFields" }
%"class.icu_75::Replaceable" = type { %"class.icu_75::UObject" }
%"class.icu_75::UObject" = type { ptr }
%"union.icu_75::UnicodeString::StackBufferOrFields" = type { %struct.anon.0, [32 x i8] }
%struct.anon.0 = type { i16, i32, i32, ptr }
%"class.icu_75::TransliteratorAlias" = type { [8 x i8], %"class.icu_75::UnicodeString", %"class.icu_75::UnicodeString", ptr, ptr, i32, i32 }

; Function Attrs: mustprogress nounwind uwtable
define internal noundef signext i8 @_ZL9U_FAILURE10UErrorCode(i32 noundef %code) #0 {
entry:
  %code.addr = alloca i32, align 4
  store i32 %code, ptr %code.addr, align 4
  %0 = load i32, ptr %code.addr, align 4
  %cmp = icmp sgt i32 %0, 0
  %conv = zext i1 %cmp to i8
  ret i8 %conv
}

; Function Attrs: mustprogress uwtable
define void @_ZNK6icu_7519TransliteratorAlias5parseERNS_20TransliteratorParserER11UParseErrorR10UErrorCode(ptr noundef nonnull align 8 dereferenceable(160) %this, ptr noundef nonnull align 8 dereferenceable(498) %parser, ptr noundef nonnull align 4 dereferenceable(72) %pe, ptr noundef nonnull align 4 dereferenceable(4) %ec) #1 align 2 {
entry:
  %this.addr = alloca ptr, align 8
  %parser.addr = alloca ptr, align 8
  %pe.addr = alloca ptr, align 8
  %ec.addr = alloca ptr, align 8
  store ptr %this, ptr %this.addr, align 8
  store ptr %parser, ptr %parser.addr, align 8
  store ptr %pe, ptr %pe.addr, align 8
  store ptr %ec, ptr %ec.addr, align 8
  %this1 = load ptr, ptr %this.addr, align 8
  %0 = load ptr, ptr %ec.addr, align 8
  %1 = load i32, ptr %0, align 4
  %call = call noundef signext i8 @_ZL9U_FAILURE10UErrorCode(i32 noundef %1)
  %tobool = icmp ne i8 %call, 0
  br i1 %tobool, label %if.then, label %if.end

if.then:                                          ; preds = %entry
  br label %return

if.end:                                           ; preds = %entry
  %2 = load ptr, ptr %parser.addr, align 8
  %aliasesOrRules = getelementptr inbounds %"class.icu_75::TransliteratorAlias", ptr %this1, i32 0, i32 2
  %direction = getelementptr inbounds %"class.icu_75::TransliteratorAlias", ptr %this1, i32 0, i32 5
  %3 = load i32, ptr %direction, align 8
  %4 = load ptr, ptr %pe.addr, align 8
  %5 = load ptr, ptr %ec.addr, align 8
  call void @_ZN6icu_7520TransliteratorParser5parseERKNS_13UnicodeStringE15UTransDirectionR11UParseErrorR10UErrorCode(ptr noundef nonnull align 8 dereferenceable(498) %2, ptr noundef nonnull align 8 dereferenceable(64) %aliasesOrRules, i32 noundef %3, ptr noundef nonnull align 4 dereferenceable(72) %4, ptr noundef nonnull align 4 dereferenceable(4) %5)
  br label %return

return:                                           ; preds = %if.end, %if.then
  ret void
}