; Function Attrs: mustprogress uwtable
define void @_ZNK6icu_7519TransliteratorAlias5parseERNS_20TransliteratorParserER11UParseErrorR10UErrorCode(ptr noundef nonnull align 8 dereferenceable(160) %this, ptr noundef nonnull align 8 dereferenceable(498) %parser, ptr noundef nonnull align 4 dereferenceable(72) %pe, ptr noundef nonnull align 4 dereferenceable(4) %ec) local_unnamed_addr #1 align 2 {
entry:
  %0 = load i32, ptr %ec, align 4
  %cmp.i = icmp slt i32 %0, 1
  br i1 %cmp.i, label %if.end, label %return

if.end:                                           ; preds = %entry
  %aliasesOrRules = getelementptr inbounds i8, ptr %this, i64 72
  %direction = getelementptr inbounds i8, ptr %this, i64 152
  %1 = load i32, ptr %direction, align 8
  tail call void @_ZN6icu_7520TransliteratorParser5parseERKNS_13UnicodeStringE15UTransDirectionR11UParseErrorR10UErrorCode(ptr noundef nonnull align 8 dereferenceable(498) %parser, ptr noundef nonnull align 8 dereferenceable(64) %aliasesOrRules, i32 noundef %1, ptr noundef nonnull align 4 dereferenceable(72) %pe, ptr noundef nonnull align 4 dereferenceable(4) %ec)
  br label %return

return:                                           ; preds = %entry, %if.end
  ret void
}